; Function Attrs: alwaysinline norecurse nounwind uwtable
define internal void @_ZN4ncnnL4lstmERKNS_3MatERS0_iS2_S2_S2_S2_S3_S3_RKNS_6OptionE.omp_outlined.4(ptr noalias noundef readonly captures(none) %0, ptr noalias readnone captures(none) %1, ptr noundef nonnull readonly align 4 captures(none) dereferenceable(4) %2, ptr noundef nonnull readonly align 4 captures(none) dereferenceable(4) %3, ptr noundef nonnull readonly align 8 captures(none) dereferenceable(72) %4, ptr noundef nonnull readonly align 8 captures(none) dereferenceable(72) %5, ptr noundef nonnull readonly align 4 captures(none) dereferenceable(4) %6, ptr noundef nonnull readonly align 8 captures(none) dereferenceable(8) %7, ptr noundef nonnull readonly align 8 captures(none) dereferenceable(8) %8) #8 personality ptr @__gxx_personality_v0 {
  %10 = alloca i32, align 4
  %11 = alloca i32, align 4
  %12 = alloca i32, align 4
  %13 = alloca i32, align 4
  %14 = load i32, ptr %3, align 4, !tbaa !35
  %15 = load i32, ptr %2, align 4, !tbaa !35
  %16 = icmp slt i32 %14, %15
  br i1 %16, label %17, label %55

17:                                               ; preds = %9
  %18 = xor i32 %14, -1
  %19 = add i32 %15, %18
  call void @llvm.lifetime.start.p0(i64 4, ptr nonnull %10) #9
  store i32 0, ptr %10, align 4, !tbaa !35
  call void @llvm.lifetime.start.p0(i64 4, ptr nonnull %11) #9
  store i32 %19, ptr %11, align 4, !tbaa !35
  call void @llvm.lifetime.start.p0(i64 4, ptr nonnull %12) #9
  store i32 1, ptr %12, align 4, !tbaa !35
  call void @llvm.lifetime.start.p0(i64 4, ptr nonnull %13) #9
  store i32 0, ptr %13, align 4, !tbaa !35
  %20 = load i32, ptr %0, align 4, !tbaa !35
  call void @__kmpc_for_static_init_4u(ptr nonnull @1, i32 %20, i32 34, ptr nonnull %13, ptr nonnull %10, ptr nonnull %11, ptr nonnull %12, i32 1, i32 1)
  %21 = load i32, ptr %11, align 4, !tbaa !35
  %22 = call i32 @llvm.umin.i32(i32 %21, i32 %19)
  store i32 %22, ptr %11, align 4, !tbaa !35
  %23 = load i32, ptr %10, align 4, !tbaa !35
  %24 = add i32 %22, 1
  %25 = icmp ult i32 %23, %24
  br i1 %25, label %.lr.ph40, label %._crit_edge41

.lr.ph40:                                         ; preds = %17
  %26 = load ptr, ptr %4, align 8, !tbaa !16
  %27 = getelementptr inbounds nuw i8, ptr %4, i64 44
  %28 = load i32, ptr %27, align 4, !tbaa !50
  %29 = sext i32 %28 to i64
  %30 = getelementptr inbounds nuw i8, ptr %4, i64 16
  %31 = load i64, ptr %30, align 8, !tbaa !47
  %factor.op.mul = mul i64 %31, %29
  %32 = load ptr, ptr %5, align 8, !tbaa !16
  %33 = load i32, ptr %6, align 4, !tbaa !35
  %34 = icmp sgt i32 %33, 0
  %35 = load ptr, ptr %7, align 8, !tbaa !209
  %36 = load ptr, ptr %8, align 8, !tbaa !209
  br i1 %34, label %.lr.ph.us.preheader, label %.lr.ph40.split

.lr.ph.us.preheader:                              ; preds = %.lr.ph40
  %wide.trip.count = zext nneg i32 %33 to i64
  br label %.lr.ph.us

.lr.ph.us:                                        ; preds = %.lr.ph.us.preheader, %._crit_edge.us
  %.03438.us = phi i32 [ %49, %._crit_edge.us ], [ %23, %.lr.ph.us.preheader ]
  %37 = add i32 %.03438.us, %14
  %38 = sext i32 %37 to i64
  %.reass.us = mul i64 %factor.op.mul, %38
  %39 = getelementptr inbounds nuw i8, ptr %26, i64 %.reass.us
  br label %40

40:                                               ; preds = %.lr.ph.us, %40
  %indvars.iv = phi i64 [ 0, %.lr.ph.us ], [ %indvars.iv.next, %40 ]
  %.03336.us = phi float [ 0.000000e+00, %.lr.ph.us ], [ %46, %40 ]
  %41 = getelementptr inbounds nuw float, ptr %32, i64 %indvars.iv
  %42 = load float, ptr %41, align 4, !tbaa !53
  %43 = getelementptr inbounds nuw float, ptr %39, i64 %indvars.iv
  %44 = load float, ptr %43, align 4, !tbaa !53
  %45 = fmul fast float %44, %42
  %46 = fadd fast float %45, %.03336.us
  %indvars.iv.next = add nuw nsw i64 %indvars.iv, 1
  %exitcond44.not = icmp eq i64 %indvars.iv.next, %wide.trip.count
  br i1 %exitcond44.not, label %._crit_edge.us, label %40, !llvm.loop !221

._crit_edge.us:                                   ; preds = %40
  %47 = getelementptr inbounds float, ptr %35, i64 %38
  store float %46, ptr %47, align 4, !tbaa !53
  %48 = getelementptr inbounds float, ptr %36, i64 %38
  store float %46, ptr %48, align 4, !tbaa !53
  %49 = add nuw i32 %.03438.us, 1
  %exitcond45.not = icmp eq i32 %.03438.us, %22
  br i1 %exitcond45.not, label %._crit_edge41, label %.lr.ph.us

.lr.ph40.split:                                   ; preds = %.lr.ph40, %.lr.ph40.split
  %.03438 = phi i32 [ %54, %.lr.ph40.split ], [ %23, %.lr.ph40 ]
  %50 = add i32 %.03438, %14
  %51 = sext i32 %50 to i64
  %52 = getelementptr inbounds float, ptr %35, i64 %51
  store float 0.000000e+00, ptr %52, align 4, !tbaa !53
  %53 = getelementptr inbounds float, ptr %36, i64 %51
  store float 0.000000e+00, ptr %53, align 4, !tbaa !53
  %54 = add nuw i32 %.03438, 1
  %exitcond.not = icmp eq i32 %.03438, %22
  br i1 %exitcond.not, label %._crit_edge41, label %.lr.ph40.split

._crit_edge41:                                    ; preds = %.lr.ph40.split, %._crit_edge.us, %17
  call void @__kmpc_for_static_fini(ptr nonnull @1, i32 %20)
  call void @llvm.lifetime.end.p0(i64 4, ptr nonnull %13) #9
  call void @llvm.lifetime.end.p0(i64 4, ptr nonnull %12) #9
  call void @llvm.lifetime.end.p0(i64 4, ptr nonnull %11) #9
  call void @llvm.lifetime.end.p0(i64 4, ptr nonnull %10) #9
  br label %55

55:                                               ; preds = %._crit_edge41, %9
  ret void
}